; Function Attrs: nounwind sspstrong uwtable
define dso_local void @tcg_gen_xori_i64(ptr noundef %0, ptr noundef %1, i64 noundef %2) local_unnamed_addr #2 {
  switch i64 %2, label %26 [
    i64 0, label %4
    i64 -1, label %16
  ]

4:                                                ; preds = %3
  %5 = icmp eq ptr %0, %1
  br i1 %5, label %tcg_gen_mov_i64.exit, label %6

6:                                                ; preds = %4
  %7 = tail call align 8 ptr @llvm.threadlocal.address.p0(ptr align 8 @tcg_ctx)
  %8 = load ptr, ptr %7, align 8
  %9 = ptrtoint ptr %0 to i64
  %10 = getelementptr inbounds nuw i8, ptr %8, i64 %9
  %11 = ptrtoint ptr %10 to i64
  %12 = ptrtoint ptr %1 to i64
  %13 = getelementptr inbounds nuw i8, ptr %8, i64 %12
  %14 = ptrtoint ptr %13 to i64
  %15 = tail call ptr @tcg_gen_op2(i32 noundef 63, i32 noundef 1, i64 noundef %11, i64 noundef %14)
  br label %tcg_gen_mov_i64.exit

16:                                               ; preds = %3
  %17 = tail call align 8 ptr @llvm.threadlocal.address.p0(ptr align 8 @tcg_ctx)
  %18 = load ptr, ptr %17, align 8
  %19 = ptrtoint ptr %0 to i64
  %20 = getelementptr inbounds nuw i8, ptr %18, i64 %19
  %21 = ptrtoint ptr %20 to i64
  %22 = ptrtoint ptr %1 to i64
  %23 = getelementptr inbounds nuw i8, ptr %18, i64 %22
  %24 = ptrtoint ptr %23 to i64
  %25 = tail call ptr @tcg_gen_op2(i32 noundef 113, i32 noundef 1, i64 noundef %21, i64 noundef %24)
  br label %tcg_gen_mov_i64.exit

26:                                               ; preds = %3
  %27 = tail call ptr @tcg_constant_i64(i64 noundef %2) #6
  %28 = tail call align 8 ptr @llvm.threadlocal.address.p0(ptr align 8 @tcg_ctx)
  %29 = load ptr, ptr %28, align 8
  %30 = ptrtoint ptr %0 to i64
  %31 = getelementptr inbounds nuw i8, ptr %29, i64 %30
  %32 = ptrtoint ptr %31 to i64
  %33 = ptrtoint ptr %1 to i64
  %34 = getelementptr inbounds nuw i8, ptr %29, i64 %33
  %35 = ptrtoint ptr %34 to i64
  %36 = ptrtoint ptr %27 to i64
  %37 = getelementptr inbounds nuw i8, ptr %29, i64 %36
  %38 = ptrtoint ptr %37 to i64
  %39 = tail call ptr @tcg_gen_op3(i32 noundef 89, i32 noundef 1, i64 noundef %32, i64 noundef %35, i64 noundef %38)
  br label %tcg_gen_mov_i64.exit

tcg_gen_mov_i64.exit:                             ; preds = %6, %4, %16, %26
  ret void
}